(dp0
S'462aec2ca8883242483416b27326b2258b9ae4d116aef0c55c38b1820d07355e'
p1
(lp2
S'c2.txt'
p3
asS'81ac4a9305a1e8b96418b7b444aa171586bbf8697b84768a0f11dddfccd48533'
p4
(lp5
S'c1.txt'
p6
aS'c2.txt'
p7
aS'c3.txt'
p8
aS'c5.txt'
p9
asS'0bfe298af0976c9460d159cd802af953354c3c15344ef3240ceb16a15d23819a'
p10
(lp11
S'c1.txt'
p12
aS'c4.txt'
p13
aS'c6.txt'
p14
asS'aae0a09ff5c9b924621f84fecff5989846af92b22624bbfca50eadb94d7e5aeb'
p15
(lp16
S'c1.txt'
p17
aS'c4.txt'
p18
aS'c5.txt'
p19
as.